target datalayout = "e-m:e-p270:32:32-p271:32:32-p272:64:64-i64:64-i128:128-f80:128-n8:16:32:64-S128"
target triple = "x86_64-pc-linux-gnu"

%struct._lv_chart_t = type { %struct._lv_obj_t, %struct.lv_ll_t, %struct.lv_ll_t, [2 x i32], [2 x i32], [2 x i32], [2 x i32], i32, i32, i32, i32, i8 }
%struct._lv_obj_t = type { ptr, ptr, ptr, ptr, ptr, %struct.lv_area_t, i32, i16, i16 }
%struct.lv_area_t = type { i32, i32, i32, i32 }
%struct.lv_ll_t = type { i32, ptr, ptr }
%struct._lv_chart_series_t = type { ptr, ptr, %struct.lv_color_t, i32, i8 }
%struct.lv_color_t = type { i8, i8, i8 }

; Function Attrs: nounwind uwtable
define internal void @lv_chart_destructor(ptr noundef %0, ptr noundef %1) #0 {
  %3 = alloca ptr, align 8
  %4 = alloca ptr, align 8
  %5 = alloca ptr, align 8
  %6 = alloca ptr, align 8
  %7 = alloca ptr, align 8
  store ptr %0, ptr %3, align 8, !tbaa !3
  store ptr %1, ptr %4, align 8, !tbaa !3
  call void @llvm.lifetime.start.p0(i64 8, ptr %5) #5
  %8 = load ptr, ptr %4, align 8, !tbaa !3
  store ptr %8, ptr %5, align 8, !tbaa !3
  call void @llvm.lifetime.start.p0(i64 8, ptr %6) #5
  br label %9

9:                                                ; preds = %46, %21, %2
  %10 = load ptr, ptr %5, align 8, !tbaa !3
  %11 = getelementptr inbounds nuw %struct._lv_chart_t, ptr %10, i32 0, i32 1
  %12 = getelementptr inbounds nuw %struct.lv_ll_t, ptr %11, i32 0, i32 1
  %13 = load ptr, ptr %12, align 8, !tbaa !18
  %14 = icmp ne ptr %13, null
  br i1 %14, label %15, label %51

15:                                               ; preds = %9
  %16 = load ptr, ptr %5, align 8, !tbaa !3
  %17 = getelementptr inbounds nuw %struct._lv_chart_t, ptr %16, i32 0, i32 1
  %18 = call ptr @lv_ll_get_head(ptr noundef %17)
  store ptr %18, ptr %6, align 8, !tbaa !3
  %19 = load ptr, ptr %6, align 8, !tbaa !3
  %20 = icmp ne ptr %19, null
  br i1 %20, label %22, label %21

21:                                               ; preds = %15
  br label %9, !llvm.loop !19

22:                                               ; preds = %15
  %23 = load ptr, ptr %6, align 8, !tbaa !3
  %24 = getelementptr inbounds nuw %struct._lv_chart_series_t, ptr %23, i32 0, i32 4
  %25 = load i8, ptr %24, align 8
  %26 = lshr i8 %25, 2
  %27 = and i8 %26, 1
  %28 = zext i8 %27 to i32
  %29 = icmp ne i32 %28, 0
  br i1 %29, label %34, label %30

30:                                               ; preds = %22
  %31 = load ptr, ptr %6, align 8, !tbaa !3
  %32 = getelementptr inbounds nuw %struct._lv_chart_series_t, ptr %31, i32 0, i32 1
  %33 = load ptr, ptr %32, align 8, !tbaa !21
  call void @lv_free(ptr noundef %33)
  br label %34

34:                                               ; preds = %30, %22
  %35 = load ptr, ptr %6, align 8, !tbaa !3
  %36 = getelementptr inbounds nuw %struct._lv_chart_series_t, ptr %35, i32 0, i32 4
  %37 = load i8, ptr %36, align 8
  %38 = lshr i8 %37, 1
  %39 = and i8 %38, 1
  %40 = zext i8 %39 to i32
  %41 = icmp ne i32 %40, 0
  br i1 %41, label %46, label %42

42:                                               ; preds = %34
  %43 = load ptr, ptr %6, align 8, !tbaa !3
  %44 = getelementptr inbounds nuw %struct._lv_chart_series_t, ptr %43, i32 0, i32 0
  %45 = load ptr, ptr %44, align 8, !tbaa !24
  call void @lv_free(ptr noundef %45)
  br label %46

46:                                               ; preds = %42, %34
  %47 = load ptr, ptr %5, align 8, !tbaa !3
  %48 = getelementptr inbounds nuw %struct._lv_chart_t, ptr %47, i32 0, i32 1
  %49 = load ptr, ptr %6, align 8, !tbaa !3
  call void @lv_ll_remove(ptr noundef %48, ptr noundef %49)
  %50 = load ptr, ptr %6, align 8, !tbaa !3
  call void @lv_free(ptr noundef %50)
  br label %9, !llvm.loop !19

51:                                               ; preds = %9
  %52 = load ptr, ptr %5, align 8, !tbaa !3
  %53 = getelementptr inbounds nuw %struct._lv_chart_t, ptr %52, i32 0, i32 1
  call void @lv_ll_clear(ptr noundef %53)
  call void @llvm.lifetime.start.p0(i64 8, ptr %7) #5
  br label %54

54:                                               ; preds = %60, %51
  %55 = load ptr, ptr %5, align 8, !tbaa !3
  %56 = getelementptr inbounds nuw %struct._lv_chart_t, ptr %55, i32 0, i32 2
  %57 = getelementptr inbounds nuw %struct.lv_ll_t, ptr %56, i32 0, i32 1
  %58 = load ptr, ptr %57, align 8, !tbaa !25
  %59 = icmp ne ptr %58, null
  br i1 %59, label %60, label %68

60:                                               ; preds = %54
  %61 = load ptr, ptr %5, align 8, !tbaa !3
  %62 = getelementptr inbounds nuw %struct._lv_chart_t, ptr %61, i32 0, i32 2
  %63 = call ptr @lv_ll_get_head(ptr noundef %62)
  store ptr %63, ptr %7, align 8, !tbaa !3
  %64 = load ptr, ptr %5, align 8, !tbaa !3
  %65 = getelementptr inbounds nuw %struct._lv_chart_t, ptr %64, i32 0, i32 2
  %66 = load ptr, ptr %7, align 8, !tbaa !3
  call void @lv_ll_remove(ptr noundef %65, ptr noundef %66)
  %67 = load ptr, ptr %7, align 8, !tbaa !3
  call void @lv_free(ptr noundef %67)
  br label %54, !llvm.loop !26

68:                                               ; preds = %54
  %69 = load ptr, ptr %5, align 8, !tbaa !3
  %70 = getelementptr inbounds nuw %struct._lv_chart_t, ptr %69, i32 0, i32 2
  call void @lv_ll_clear(ptr noundef %70)
  call void @llvm.lifetime.end.p0(i64 8, ptr %7) #5
  call void @llvm.lifetime.end.p0(i64 8, ptr %6) #5
  call void @llvm.lifetime.end.p0(i64 8, ptr %5) #5
  ret void
}