; Function Attrs: nounwind uwtable
define internal void @lv_chart_destructor(ptr nocapture readnone %0, ptr noundef %1) #0 {
  %3 = getelementptr inbounds nuw i8, ptr %1, i64 64
  %4 = getelementptr inbounds nuw i8, ptr %1, i64 72
  %5 = load ptr, ptr %4, align 8, !tbaa !17
  %.not23 = icmp eq ptr %5, null
  br i1 %.not23, label %._crit_edge, label %.lr.ph

.lr.ph:                                           ; preds = %2, %.backedge
  %6 = tail call ptr @lv_ll_get_head(ptr noundef nonnull %3) #8
  %.not19 = icmp eq ptr %6, null
  br i1 %.not19, label %.backedge, label %7

7:                                                ; preds = %.lr.ph
  %8 = getelementptr inbounds nuw i8, ptr %6, i64 24
  %9 = load i8, ptr %8, align 8
  %10 = and i8 %9, 4
  %.not20 = icmp eq i8 %10, 0
  br i1 %.not20, label %11, label %14

11:                                               ; preds = %7
  %12 = getelementptr inbounds nuw i8, ptr %6, i64 8
  %13 = load ptr, ptr %12, align 8, !tbaa !18
  tail call void @lv_free(ptr noundef %13) #8
  %.pre = load i8, ptr %8, align 8
  br label %14

14:                                               ; preds = %11, %7
  %15 = phi i8 [ %.pre, %11 ], [ %9, %7 ]
  %16 = and i8 %15, 2
  %.not21 = icmp eq i8 %16, 0
  br i1 %.not21, label %17, label %19

17:                                               ; preds = %14
  %18 = load ptr, ptr %6, align 8, !tbaa !21
  tail call void @lv_free(ptr noundef %18) #8
  br label %19

19:                                               ; preds = %17, %14
  tail call void @lv_ll_remove(ptr noundef nonnull %3, ptr noundef nonnull %6) #8
  tail call void @lv_free(ptr noundef nonnull %6) #8
  br label %.backedge

.backedge:                                        ; preds = %19, %.lr.ph
  %20 = load ptr, ptr %4, align 8, !tbaa !17
  %.not = icmp eq ptr %20, null
  br i1 %.not, label %._crit_edge, label %.lr.ph, !llvm.loop !22

._crit_edge:                                      ; preds = %.backedge, %2
  tail call void @lv_ll_clear(ptr noundef nonnull %3) #8
  %21 = getelementptr inbounds nuw i8, ptr %1, i64 88
  %22 = getelementptr inbounds nuw i8, ptr %1, i64 96
  %23 = load ptr, ptr %22, align 8, !tbaa !24
  %.not1824 = icmp eq ptr %23, null
  br i1 %.not1824, label %._crit_edge27, label %.lr.ph26

.lr.ph26:                                         ; preds = %._crit_edge, %.lr.ph26
  %24 = tail call ptr @lv_ll_get_head(ptr noundef nonnull %21) #8
  tail call void @lv_ll_remove(ptr noundef nonnull %21, ptr noundef %24) #8
  tail call void @lv_free(ptr noundef %24) #8
  %25 = load ptr, ptr %22, align 8, !tbaa !24
  %.not18 = icmp eq ptr %25, null
  br i1 %.not18, label %._crit_edge27, label %.lr.ph26, !llvm.loop !25

._crit_edge27:                                    ; preds = %.lr.ph26, %._crit_edge
  tail call void @lv_ll_clear(ptr noundef nonnull %21) #8
  ret void
}